; Function Attrs: nofree nounwind uwtable
define hidden range(i32 -152, 1) i32 @psa_its_get_info(i64 noundef %0, ptr noundef writeonly captures(none) %1) local_unnamed_addr #0 {
  %3 = alloca ptr, align 8
  call void @llvm.lifetime.start.p0(i64 8, ptr nonnull %3) #4
  %4 = call fastcc i32 @psa_its_read_file(i64 noundef %0, ptr noundef %1, ptr noundef %3)
  %5 = load ptr, ptr %3, align 8, !tbaa !3
  %.not = icmp eq ptr %5, null
  br i1 %.not, label %8, label %6

6:                                                ; preds = %2
  %7 = tail call i32 @fclose(ptr noundef nonnull %5)
  br label %8

8:                                                ; preds = %6, %2
  call void @llvm.lifetime.end.p0(i64 8, ptr nonnull %3) #4
  ret i32 %4
}